target datalayout = "e-m:e-p270:32:32-p271:32:32-p272:64:64-i64:64-i128:128-f80:128-n8:16:32:64-S128"
target triple = "x86_64-pc-linux-gnu"

%struct.ossl_param_st = type { ptr, i32, ptr, i64, i64 }
%struct.TEST_ENCAPDATA = type { ptr, ptr, i64, ptr, i64, ptr, i64, ptr, i64, ptr, i64, ptr, i64, ptr, i64 }

@opparam = internal global [2 x %struct.ossl_param_st] zeroinitializer, align 16
@.str.3 = private unnamed_addr constant [38 x i8] c"../openssl/test/evp_pkey_dhkem_test.c\00", align 1
@rctx = internal global [2 x ptr] zeroinitializer, align 16
@.str.50 = private unnamed_addr constant [2 x i8] c"1\00", align 1
@.str.74 = private unnamed_addr constant [2 x i8] c"0\00", align 1
@.str.79 = private unnamed_addr constant [60 x i8] c"EVP_PKEY_encapsulate(ctx, enc, &enclen, secret, &secretlen)\00", align 1
@.str.92 = private unnamed_addr constant [6 x i8] c"%s %s\00", align 1
@.str.93 = private unnamed_addr constant [6 x i8] c"Encap\00", align 1
@.str.94 = private unnamed_addr constant [6 x i8] c"Decap\00", align 1
@.str.98 = private unnamed_addr constant [32 x i8] c"ERR_GET_REASON(ERR_get_error())\00", align 1
@.str.101 = private unnamed_addr constant [51 x i8] c"EVP_PKEY_auth_encapsulate_init(ctx, auth, opparam)\00", align 1
@.str.102 = private unnamed_addr constant [51 x i8] c"EVP_PKEY_auth_decapsulate_init(ctx, auth, opparam)\00", align 1
@.str.153 = private unnamed_addr constant [83 x i8] c"EVP_PKEY_decapsulate(ctx, secret, &secretlen, t->expected_enc, t->expected_enclen)\00", align 1
@.str.154 = private unnamed_addr constant [19 x i8] c"PROV_R_INVALID_KEY\00", align 1
@.str.155 = private unnamed_addr constant [68 x i8] c"auth = new_raw_private_key(t->curve, t->rpriv, t->rprivlen, pub, 1)\00", align 1

; Function Attrs: inlinehint nounwind uwtable
define internal i32 @ERR_GET_REASON(i64 noundef %0) #5 {
  %2 = alloca i32, align 4
  %3 = alloca i64, align 8
  store i64 %0, ptr %3, align 8, !tbaa !13
  %4 = load i64, ptr %3, align 8, !tbaa !13
  %5 = and i64 %4, 2147483648
  %6 = icmp ne i64 %5, 0
  br i1 %6, label %7, label %11

7:                                                ; preds = %1
  %8 = load i64, ptr %3, align 8, !tbaa !13
  %9 = and i64 %8, 2147483647
  %10 = trunc i64 %9 to i32
  store i32 %10, ptr %2, align 4
  br label %15

11:                                               ; preds = %1
  %12 = load i64, ptr %3, align 8, !tbaa !13
  %13 = and i64 %12, 8388607
  %14 = trunc i64 %13 to i32
  store i32 %14, ptr %2, align 4
  br label %15

15:                                               ; preds = %11, %7
  %16 = load i32, ptr %2, align 4
  ret i32 %16
}

; Function Attrs: nounwind uwtable
define internal i32 @test_ec_badauth(i32 noundef %0) #0 {
  %2 = alloca i32, align 4
  %3 = alloca i32, align 4
  %4 = alloca ptr, align 8
  %5 = alloca [256 x i8], align 16
  %6 = alloca [256 x i8], align 16
  %7 = alloca [256 x i8], align 16
  %8 = alloca i64, align 8
  %9 = alloca i64, align 8
  %10 = alloca i32, align 4
  %11 = alloca ptr, align 8
  %12 = alloca ptr, align 8
  store i32 %0, ptr %2, align 4, !tbaa !10
  call void @llvm.lifetime.start.p0(i64 4, ptr %3) #6
  store i32 0, ptr %3, align 4, !tbaa !10
  call void @llvm.lifetime.start.p0(i64 8, ptr %4) #6
  store ptr null, ptr %4, align 8, !tbaa !17
  call void @llvm.lifetime.start.p0(i64 256, ptr %5) #6
  call void @llvm.lifetime.start.p0(i64 256, ptr %6) #6
  call void @llvm.lifetime.start.p0(i64 256, ptr %7) #6
  call void @llvm.lifetime.start.p0(i64 8, ptr %8) #6
  store i64 256, ptr %8, align 8, !tbaa !13
  call void @llvm.lifetime.start.p0(i64 8, ptr %9) #6
  store i64 256, ptr %9, align 8, !tbaa !13
  call void @llvm.lifetime.start.p0(i64 4, ptr %10) #6
  %13 = load i32, ptr %2, align 4, !tbaa !10
  %14 = and i32 %13, 1
  %15 = icmp eq i32 %14, 0
  %16 = zext i1 %15 to i32
  store i32 %16, ptr %10, align 4, !tbaa !10
  call void @llvm.lifetime.start.p0(i64 8, ptr %11) #6
  store ptr @ec_encapdata, ptr %11, align 8, !tbaa !12
  call void @llvm.lifetime.start.p0(i64 8, ptr %12) #6
  %17 = load ptr, ptr @rctx, align 16, !tbaa !19
  store ptr %17, ptr %12, align 8, !tbaa !19
  %18 = load ptr, ptr %11, align 8, !tbaa !12
  %19 = getelementptr inbounds nuw %struct.TEST_ENCAPDATA, ptr %18, i32 0, i32 0
  %20 = load ptr, ptr %19, align 8, !tbaa !21
  %21 = load i32, ptr %10, align 4, !tbaa !10
  %22 = icmp ne i32 %21, 0
  %23 = select i1 %22, ptr @.str.93, ptr @.str.94
  call void (ptr, ...) @test_note(ptr noundef @.str.92, ptr noundef %20, ptr noundef %23)
  %24 = getelementptr inbounds [256 x i8], ptr %7, i64 0, i64 0
  store i8 0, ptr %24, align 16, !tbaa !47
  %25 = load ptr, ptr %11, align 8, !tbaa !12
  %26 = getelementptr inbounds nuw %struct.TEST_ENCAPDATA, ptr %25, i32 0, i32 0
  %27 = load ptr, ptr %26, align 8, !tbaa !21
  %28 = load ptr, ptr %11, align 8, !tbaa !12
  %29 = getelementptr inbounds nuw %struct.TEST_ENCAPDATA, ptr %28, i32 0, i32 5
  %30 = load ptr, ptr %29, align 8, !tbaa !29
  %31 = load ptr, ptr %11, align 8, !tbaa !12
  %32 = getelementptr inbounds nuw %struct.TEST_ENCAPDATA, ptr %31, i32 0, i32 6
  %33 = load i64, ptr %32, align 8, !tbaa !30
  %34 = getelementptr inbounds [256 x i8], ptr %7, i64 0, i64 0
  %35 = call ptr @new_raw_private_key(ptr noundef %27, ptr noundef %30, i64 noundef %33, ptr noundef %34, i64 noundef 1)
  store ptr %35, ptr %4, align 8, !tbaa !17
  %36 = call i32 @test_ptr(ptr noundef @.str.3, i32 noundef 663, ptr noundef @.str.155, ptr noundef %35)
  %37 = icmp ne i32 %36, 0
  br i1 %37, label %39, label %38

38:                                               ; preds = %1
  br label %84

39:                                               ; preds = %1
  %40 = load i32, ptr %10, align 4, !tbaa !10
  %41 = icmp ne i32 %40, 0
  br i1 %41, label %42, label %57

42:                                               ; preds = %39
  %43 = load ptr, ptr %12, align 8, !tbaa !19
  %44 = load ptr, ptr %4, align 8, !tbaa !17
  %45 = call i32 @EVP_PKEY_auth_encapsulate_init(ptr noundef %43, ptr noundef %44, ptr noundef @opparam)
  %46 = call i32 @test_int_eq(ptr noundef @.str.3, i32 noundef 667, ptr noundef @.str.101, ptr noundef @.str.50, i32 noundef %45, i32 noundef 1)
  %47 = icmp ne i32 %46, 0
  br i1 %47, label %48, label %55

48:                                               ; preds = %42
  %49 = load ptr, ptr %12, align 8, !tbaa !19
  %50 = getelementptr inbounds [256 x i8], ptr %5, i64 0, i64 0
  %51 = getelementptr inbounds [256 x i8], ptr %6, i64 0, i64 0
  %52 = call i32 @EVP_PKEY_encapsulate(ptr noundef %49, ptr noundef %50, ptr noundef %8, ptr noundef %51, ptr noundef %9)
  %53 = call i32 @test_int_eq(ptr noundef @.str.3, i32 noundef 669, ptr noundef @.str.79, ptr noundef @.str.74, i32 noundef %52, i32 noundef 0)
  %54 = icmp ne i32 %53, 0
  br i1 %54, label %56, label %55

55:                                               ; preds = %48, %42
  br label %84

56:                                               ; preds = %48
  br label %77

57:                                               ; preds = %39
  %58 = load ptr, ptr %12, align 8, !tbaa !19
  %59 = load ptr, ptr %4, align 8, !tbaa !17
  %60 = call i32 @EVP_PKEY_auth_decapsulate_init(ptr noundef %58, ptr noundef %59, ptr noundef @opparam)
  %61 = call i32 @test_int_eq(ptr noundef @.str.3, i32 noundef 672, ptr noundef @.str.102, ptr noundef @.str.50, i32 noundef %60, i32 noundef 1)
  %62 = icmp ne i32 %61, 0
  br i1 %62, label %63, label %75

63:                                               ; preds = %57
  %64 = load ptr, ptr %12, align 8, !tbaa !19
  %65 = getelementptr inbounds [256 x i8], ptr %6, i64 0, i64 0
  %66 = load ptr, ptr %11, align 8, !tbaa !12
  %67 = getelementptr inbounds nuw %struct.TEST_ENCAPDATA, ptr %66, i32 0, i32 7
  %68 = load ptr, ptr %67, align 8, !tbaa !35
  %69 = load ptr, ptr %11, align 8, !tbaa !12
  %70 = getelementptr inbounds nuw %struct.TEST_ENCAPDATA, ptr %69, i32 0, i32 8
  %71 = load i64, ptr %70, align 8, !tbaa !36
  %72 = call i32 @EVP_PKEY_decapsulate(ptr noundef %64, ptr noundef %65, ptr noundef %9, ptr noundef %68, i64 noundef %71)
  %73 = call i32 @test_int_eq(ptr noundef @.str.3, i32 noundef 675, ptr noundef @.str.153, ptr noundef @.str.74, i32 noundef %72, i32 noundef 0)
  %74 = icmp ne i32 %73, 0
  br i1 %74, label %76, label %75

75:                                               ; preds = %63, %57
  br label %84

76:                                               ; preds = %63
  br label %77

77:                                               ; preds = %76, %56
  %78 = call i64 @ERR_get_error()
  %79 = call i32 @ERR_GET_REASON(i64 noundef %78)
  %80 = call i32 @test_int_eq(ptr noundef @.str.3, i32 noundef 678, ptr noundef @.str.98, ptr noundef @.str.154, i32 noundef %79, i32 noundef 158)
  %81 = icmp ne i32 %80, 0
  br i1 %81, label %83, label %82

82:                                               ; preds = %77
  br label %84

83:                                               ; preds = %77
  store i32 1, ptr %3, align 4, !tbaa !10
  br label %84

84:                                               ; preds = %83, %82, %75, %55, %38
  %85 = load ptr, ptr %4, align 8, !tbaa !17
  call void @EVP_PKEY_free(ptr noundef %85)
  %86 = load i32, ptr %3, align 4, !tbaa !10
  call void @llvm.lifetime.end.p0(i64 8, ptr %12) #6
  call void @llvm.lifetime.end.p0(i64 8, ptr %11) #6
  call void @llvm.lifetime.end.p0(i64 4, ptr %10) #6
  call void @llvm.lifetime.end.p0(i64 8, ptr %9) #6
  call void @llvm.lifetime.end.p0(i64 8, ptr %8) #6
  call void @llvm.lifetime.end.p0(i64 256, ptr %7) #6
  call void @llvm.lifetime.end.p0(i64 256, ptr %6) #6
  call void @llvm.lifetime.end.p0(i64 256, ptr %5) #6
  call void @llvm.lifetime.end.p0(i64 8, ptr %4) #6
  call void @llvm.lifetime.end.p0(i64 4, ptr %3) #6
  ret i32 %86
}