; Function Attrs: nounwind uwtable
define internal range(i32 0, 2) i32 @test_ec_badauth(i32 noundef %0) #0 {
  %2 = alloca [256 x i8], align 16
  %3 = alloca [256 x i8], align 16
  %4 = alloca [256 x i8], align 16
  %5 = alloca i64, align 8
  %6 = alloca i64, align 8
  call void @llvm.lifetime.start.p0(i64 256, ptr nonnull %2) #5
  call void @llvm.lifetime.start.p0(i64 256, ptr nonnull %3) #5
  call void @llvm.lifetime.start.p0(i64 256, ptr nonnull %4) #5
  call void @llvm.lifetime.start.p0(i64 8, ptr nonnull %5) #5
  store i64 256, ptr %5, align 8, !tbaa !13
  call void @llvm.lifetime.start.p0(i64 8, ptr nonnull %6) #5
  store i64 256, ptr %6, align 8, !tbaa !13
  %7 = and i32 %0, 1
  %8 = icmp eq i32 %7, 0
  %9 = load ptr, ptr @rctx, align 16, !tbaa !19
  %10 = select i1 %8, ptr @.str.93, ptr @.str.94
  tail call void (ptr, ...) @test_note(ptr noundef nonnull @.str.92, ptr noundef nonnull @.str.6, ptr noundef nonnull %10) #5
  store i8 0, ptr %4, align 16, !tbaa !49
  %11 = call fastcc ptr @new_raw_private_key(ptr noundef nonnull @.str.6, ptr noundef nonnull @p256_ikmr_priv, i64 noundef 32, ptr noundef nonnull %4, i64 noundef 1)
  %12 = call i32 @test_ptr(ptr noundef nonnull @.str.3, i32 noundef 663, ptr noundef nonnull @.str.155, ptr noundef %11) #5
  %.not = icmp eq i32 %12, 0
  br i1 %.not, label %31, label %13

13:                                               ; preds = %1
  br i1 %8, label %14, label %20

14:                                               ; preds = %13
  %15 = call i32 @EVP_PKEY_auth_encapsulate_init(ptr noundef %9, ptr noundef %11, ptr noundef nonnull @opparam) #5
  %16 = call i32 @test_int_eq(ptr noundef nonnull @.str.3, i32 noundef 667, ptr noundef nonnull @.str.101, ptr noundef nonnull @.str.50, i32 noundef %15, i32 noundef 1) #5
  %.not18 = icmp eq i32 %16, 0
  br i1 %.not18, label %31, label %17

17:                                               ; preds = %14
  %18 = call i32 @EVP_PKEY_encapsulate(ptr noundef %9, ptr noundef nonnull %2, ptr noundef nonnull %5, ptr noundef nonnull %3, ptr noundef nonnull %6) #5
  %19 = call i32 @test_int_eq(ptr noundef nonnull @.str.3, i32 noundef 669, ptr noundef nonnull @.str.79, ptr noundef nonnull @.str.74, i32 noundef %18, i32 noundef 0) #5
  %.not19 = icmp eq i32 %19, 0
  br i1 %.not19, label %31, label %26

20:                                               ; preds = %13
  %21 = call i32 @EVP_PKEY_auth_decapsulate_init(ptr noundef %9, ptr noundef %11, ptr noundef nonnull @opparam) #5
  %22 = call i32 @test_int_eq(ptr noundef nonnull @.str.3, i32 noundef 672, ptr noundef nonnull @.str.102, ptr noundef nonnull @.str.50, i32 noundef %21, i32 noundef 1) #5
  %.not16 = icmp eq i32 %22, 0
  br i1 %.not16, label %31, label %23

23:                                               ; preds = %20
  %24 = call i32 @EVP_PKEY_decapsulate(ptr noundef %9, ptr noundef nonnull %3, ptr noundef nonnull %6, ptr noundef nonnull @p256_expected_enc, i64 noundef 65) #5
  %25 = call i32 @test_int_eq(ptr noundef nonnull @.str.3, i32 noundef 675, ptr noundef nonnull @.str.153, ptr noundef nonnull @.str.74, i32 noundef %24, i32 noundef 0) #5
  %.not17 = icmp eq i32 %25, 0
  br i1 %.not17, label %31, label %26

26:                                               ; preds = %23, %17
  %27 = call i64 @ERR_get_error() #5
  %28 = and i64 %27, 2147483648
  %.not.i = icmp eq i64 %28, 0
  %29 = trunc i64 %27 to i32
  %.0.v.i = select i1 %.not.i, i32 8388607, i32 2147483647
  %.0.i = and i32 %.0.v.i, %29
  %30 = call i32 @test_int_eq(ptr noundef nonnull @.str.3, i32 noundef 678, ptr noundef nonnull @.str.98, ptr noundef nonnull @.str.154, i32 noundef %.0.i, i32 noundef 158) #5
  %.not20 = icmp ne i32 %30, 0
  %spec.select = zext i1 %.not20 to i32
  br label %31

31:                                               ; preds = %26, %20, %23, %14, %17, %1
  %.0 = phi i32 [ 0, %17 ], [ 0, %14 ], [ 0, %23 ], [ 0, %20 ], [ 0, %1 ], [ %spec.select, %26 ]
  call void @EVP_PKEY_free(ptr noundef %11) #5
  call void @llvm.lifetime.end.p0(i64 8, ptr nonnull %6) #5
  call void @llvm.lifetime.end.p0(i64 8, ptr nonnull %5) #5
  call void @llvm.lifetime.end.p0(i64 256, ptr nonnull %4) #5
  call void @llvm.lifetime.end.p0(i64 256, ptr nonnull %3) #5
  call void @llvm.lifetime.end.p0(i64 256, ptr nonnull %2) #5
  ret i32 %.0
}